target datalayout = "e-m:e-p270:32:32-p271:32:32-p272:64:64-i64:64-i128:128-f80:128-n8:16:32:64-S128"
target triple = "x86_64-pc-linux-gnu"

%union.pthread_mutex_t = type { %struct.__pthread_mutex_s }
%struct.__pthread_mutex_s = type { i32, i32, i32, i32, i32, i16, i16, %struct.__pthread_internal_list }
%struct.__pthread_internal_list = type { ptr, ptr }
%struct.tMPI_Thread_starter = type { ptr, ptr, ptr, %union.pthread_mutex_t }

@_ZL13thread_id_key = internal global i32 0, align 4

; Function Attrs: mustprogress uwtable
define internal noundef ptr @_ZL17tMPI_Thread_startPv(ptr noundef %0) #2 {
  %2 = alloca ptr, align 8
  %3 = alloca ptr, align 8
  %4 = alloca ptr, align 8
  %5 = alloca ptr, align 8
  %6 = alloca ptr, align 8
  %7 = alloca i32, align 4
  store ptr %0, ptr %3, align 8
  %8 = load ptr, ptr %3, align 8
  store ptr %8, ptr %4, align 8
  %9 = load ptr, ptr %4, align 8
  %10 = getelementptr inbounds %struct.tMPI_Thread_starter, ptr %9, i32 0, i32 3
  %11 = call i32 @pthread_mutex_lock(ptr noundef %10) #8
  store i32 %11, ptr %7, align 4
  %12 = load i32, ptr %7, align 4
  %13 = icmp ne i32 %12, 0
  br i1 %13, label %14, label %15

14:                                               ; preds = %1
  store ptr null, ptr %2, align 8
  br label %45

15:                                               ; preds = %1
  %16 = load ptr, ptr %4, align 8
  %17 = getelementptr inbounds %struct.tMPI_Thread_starter, ptr %16, i32 0, i32 3
  %18 = call i32 @pthread_mutex_unlock(ptr noundef %17) #8
  store i32 %18, ptr %7, align 4
  %19 = load i32, ptr %7, align 4
  %20 = icmp ne i32 %19, 0
  br i1 %20, label %21, label %22

21:                                               ; preds = %15
  store ptr null, ptr %2, align 8
  br label %45

22:                                               ; preds = %15
  %23 = load i32, ptr @_ZL13thread_id_key, align 4
  %24 = load ptr, ptr %4, align 8
  %25 = getelementptr inbounds %struct.tMPI_Thread_starter, ptr %24, i32 0, i32 0
  %26 = load ptr, ptr %25, align 8
  %27 = call i32 @pthread_setspecific(i32 noundef %23, ptr noundef %26) #8
  store i32 %27, ptr %7, align 4
  %28 = load i32, ptr %7, align 4
  %29 = icmp ne i32 %28, 0
  br i1 %29, label %30, label %31

30:                                               ; preds = %22
  store ptr null, ptr %2, align 8
  br label %45

31:                                               ; preds = %22
  %32 = load ptr, ptr %4, align 8
  %33 = getelementptr inbounds %struct.tMPI_Thread_starter, ptr %32, i32 0, i32 1
  %34 = load ptr, ptr %33, align 8
  store ptr %34, ptr %5, align 8
  %35 = load ptr, ptr %4, align 8
  %36 = getelementptr inbounds %struct.tMPI_Thread_starter, ptr %35, i32 0, i32 2
  %37 = load ptr, ptr %36, align 8
  store ptr %37, ptr %6, align 8
  %38 = load ptr, ptr %4, align 8
  %39 = getelementptr inbounds %struct.tMPI_Thread_starter, ptr %38, i32 0, i32 3
  %40 = call i32 @pthread_mutex_destroy(ptr noundef %39) #8
  %41 = load ptr, ptr %4, align 8
  call void @free(ptr noundef %41) #8
  %42 = load ptr, ptr %5, align 8
  %43 = load ptr, ptr %6, align 8
  %44 = call noundef ptr %42(ptr noundef %43)
  store ptr %44, ptr %2, align 8
  br label %45

45:                                               ; preds = %31, %30, %21, %14
  %46 = load ptr, ptr %2, align 8
  ret ptr %46
}