; Function Attrs: mustprogress uwtable
define internal noundef ptr @_ZL17tMPI_Thread_startPv(ptr noundef %0) #4 {
  %2 = getelementptr inbounds i8, ptr %0, i64 24
  %3 = tail call i32 @pthread_mutex_lock(ptr noundef nonnull %2) #13
  %.not = icmp eq i32 %3, 0
  br i1 %.not, label %4, label %17

4:                                                ; preds = %1
  %5 = tail call i32 @pthread_mutex_unlock(ptr noundef nonnull %2) #13
  %.not13 = icmp eq i32 %5, 0
  br i1 %.not13, label %6, label %17

6:                                                ; preds = %4
  %7 = load i32, ptr @_ZL13thread_id_key, align 4
  %8 = load ptr, ptr %0, align 8
  %9 = tail call i32 @pthread_setspecific(i32 noundef %7, ptr noundef %8) #13
  %.not14 = icmp eq i32 %9, 0
  br i1 %.not14, label %10, label %17

10:                                               ; preds = %6
  %11 = getelementptr inbounds i8, ptr %0, i64 8
  %12 = load ptr, ptr %11, align 8
  %13 = getelementptr inbounds i8, ptr %0, i64 16
  %14 = load ptr, ptr %13, align 8
  %15 = tail call i32 @pthread_mutex_destroy(ptr noundef nonnull %2) #13
  tail call void @free(ptr noundef nonnull %0) #13
  %16 = tail call noundef ptr %12(ptr noundef %14)
  br label %17

17:                                               ; preds = %6, %4, %1, %10
  %.0 = phi ptr [ %16, %10 ], [ null, %1 ], [ null, %4 ], [ null, %6 ]
  ret ptr %.0
}